ARM GAS  C:\Users\LINZHE~1\AppData\Local\Temp\ccd8JooJ.s 			page 1


   1              		.cpu cortex-m4
   2              		.arch armv7e-m
   3              		.fpu fpv4-sp-d16
   4              		.eabi_attribute 27, 1
   5              		.eabi_attribute 28, 1
   6              		.eabi_attribute 20, 1
   7              		.eabi_attribute 21, 1
   8              		.eabi_attribute 23, 3
   9              		.eabi_attribute 24, 1
  10              		.eabi_attribute 25, 1
  11              		.eabi_attribute 26, 1
  12              		.eabi_attribute 30, 1
  13              		.eabi_attribute 34, 1
  14              		.eabi_attribute 18, 4
  15              		.file	"SEGGER_SYSVIEW_Config_FreeRTOS.c"
  16              		.text
  17              	.Ltext0:
  18              		.cfi_sections	.debug_frame
  19              		.section	.rodata._cbSendSystemDesc.str1.4,"aMS",%progbits,1
  20              		.align	2
  21              	.LC0:
  22 0000 4E3D4672 		.ascii	"N=FreeRTOS Template,D=STM32F4 black-pill,O=FreeRTOS"
  22      65655254 
  22      4F532054 
  22      656D706C 
  22      6174652C 
  23 0033 00       		.ascii	"\000"
  24              		.align	2
  25              	.LC1:
  26 0034 49233135 		.ascii	"I#15=SysTick\000"
  26      3D537973 
  26      5469636B 
  26      00
  27              		.section	.text._cbSendSystemDesc,"ax",%progbits
  28              		.align	1
  29              		.syntax unified
  30              		.thumb
  31              		.thumb_func
  33              	_cbSendSystemDesc:
  34              	.LFB5:
  35              		.file 1 "SEGGER/Config/SEGGER_SYSVIEW_Config_FreeRTOS.c"
   1:SEGGER/Config/SEGGER_SYSVIEW_Config_FreeRTOS.c **** /*********************************************************************
   2:SEGGER/Config/SEGGER_SYSVIEW_Config_FreeRTOS.c **** *                    SEGGER Microcontroller GmbH                     *
   3:SEGGER/Config/SEGGER_SYSVIEW_Config_FreeRTOS.c **** *                        The Embedded Experts                        *
   4:SEGGER/Config/SEGGER_SYSVIEW_Config_FreeRTOS.c **** **********************************************************************
   5:SEGGER/Config/SEGGER_SYSVIEW_Config_FreeRTOS.c **** *                                                                    *
   6:SEGGER/Config/SEGGER_SYSVIEW_Config_FreeRTOS.c **** *            (c) 1995 - 2021 SEGGER Microcontroller GmbH             *
   7:SEGGER/Config/SEGGER_SYSVIEW_Config_FreeRTOS.c **** *                                                                    *
   8:SEGGER/Config/SEGGER_SYSVIEW_Config_FreeRTOS.c **** *       www.segger.com     Support: support@segger.com               *
   9:SEGGER/Config/SEGGER_SYSVIEW_Config_FreeRTOS.c **** *                                                                    *
  10:SEGGER/Config/SEGGER_SYSVIEW_Config_FreeRTOS.c **** **********************************************************************
  11:SEGGER/Config/SEGGER_SYSVIEW_Config_FreeRTOS.c **** *                                                                    *
  12:SEGGER/Config/SEGGER_SYSVIEW_Config_FreeRTOS.c **** *       SEGGER SystemView * Real-time application analysis           *
  13:SEGGER/Config/SEGGER_SYSVIEW_Config_FreeRTOS.c **** *                                                                    *
  14:SEGGER/Config/SEGGER_SYSVIEW_Config_FreeRTOS.c **** **********************************************************************
  15:SEGGER/Config/SEGGER_SYSVIEW_Config_FreeRTOS.c **** *                                                                    *
  16:SEGGER/Config/SEGGER_SYSVIEW_Config_FreeRTOS.c **** * All rights reserved.                                               *
ARM GAS  C:\Users\LINZHE~1\AppData\Local\Temp\ccd8JooJ.s 			page 2


  17:SEGGER/Config/SEGGER_SYSVIEW_Config_FreeRTOS.c **** *                                                                    *
  18:SEGGER/Config/SEGGER_SYSVIEW_Config_FreeRTOS.c **** * SEGGER strongly recommends to not make any changes                 *
  19:SEGGER/Config/SEGGER_SYSVIEW_Config_FreeRTOS.c **** * to or modify the source code of this software in order to stay     *
  20:SEGGER/Config/SEGGER_SYSVIEW_Config_FreeRTOS.c **** * compatible with the SystemView and RTT protocol, and J-Link.       *
  21:SEGGER/Config/SEGGER_SYSVIEW_Config_FreeRTOS.c **** *                                                                    *
  22:SEGGER/Config/SEGGER_SYSVIEW_Config_FreeRTOS.c **** * Redistribution and use in source and binary forms, with or         *
  23:SEGGER/Config/SEGGER_SYSVIEW_Config_FreeRTOS.c **** * without modification, are permitted provided that the following    *
  24:SEGGER/Config/SEGGER_SYSVIEW_Config_FreeRTOS.c **** * condition is met:                                                  *
  25:SEGGER/Config/SEGGER_SYSVIEW_Config_FreeRTOS.c **** *                                                                    *
  26:SEGGER/Config/SEGGER_SYSVIEW_Config_FreeRTOS.c **** * o Redistributions of source code must retain the above copyright   *
  27:SEGGER/Config/SEGGER_SYSVIEW_Config_FreeRTOS.c **** *   notice, this condition and the following disclaimer.             *
  28:SEGGER/Config/SEGGER_SYSVIEW_Config_FreeRTOS.c **** *                                                                    *
  29:SEGGER/Config/SEGGER_SYSVIEW_Config_FreeRTOS.c **** * THIS SOFTWARE IS PROVIDED BY THE COPYRIGHT HOLDERS AND             *
  30:SEGGER/Config/SEGGER_SYSVIEW_Config_FreeRTOS.c **** * CONTRIBUTORS "AS IS" AND ANY EXPRESS OR IMPLIED WARRANTIES,        *
  31:SEGGER/Config/SEGGER_SYSVIEW_Config_FreeRTOS.c **** * INCLUDING, BUT NOT LIMITED TO, THE IMPLIED WARRANTIES OF           *
  32:SEGGER/Config/SEGGER_SYSVIEW_Config_FreeRTOS.c **** * MERCHANTABILITY AND FITNESS FOR A PARTICULAR PURPOSE ARE           *
  33:SEGGER/Config/SEGGER_SYSVIEW_Config_FreeRTOS.c **** * DISCLAIMED. IN NO EVENT SHALL SEGGER Microcontroller BE LIABLE FOR *
  34:SEGGER/Config/SEGGER_SYSVIEW_Config_FreeRTOS.c **** * ANY DIRECT, INDIRECT, INCIDENTAL, SPECIAL, EXEMPLARY, OR           *
  35:SEGGER/Config/SEGGER_SYSVIEW_Config_FreeRTOS.c **** * CONSEQUENTIAL DAMAGES (INCLUDING, BUT NOT LIMITED TO, PROCUREMENT  *
  36:SEGGER/Config/SEGGER_SYSVIEW_Config_FreeRTOS.c **** * OF SUBSTITUTE GOODS OR SERVICES; LOSS OF USE, DATA, OR PROFITS;    *
  37:SEGGER/Config/SEGGER_SYSVIEW_Config_FreeRTOS.c **** * OR BUSINESS INTERRUPTION) HOWEVER CAUSED AND ON ANY THEORY OF      *
  38:SEGGER/Config/SEGGER_SYSVIEW_Config_FreeRTOS.c **** * LIABILITY, WHETHER IN CONTRACT, STRICT LIABILITY, OR TORT          *
  39:SEGGER/Config/SEGGER_SYSVIEW_Config_FreeRTOS.c **** * (INCLUDING NEGLIGENCE OR OTHERWISE) ARISING IN ANY WAY OUT OF THE  *
  40:SEGGER/Config/SEGGER_SYSVIEW_Config_FreeRTOS.c **** * USE OF THIS SOFTWARE, EVEN IF ADVISED OF THE POSSIBILITY OF SUCH   *
  41:SEGGER/Config/SEGGER_SYSVIEW_Config_FreeRTOS.c **** * DAMAGE.                                                            *
  42:SEGGER/Config/SEGGER_SYSVIEW_Config_FreeRTOS.c **** *                                                                    *
  43:SEGGER/Config/SEGGER_SYSVIEW_Config_FreeRTOS.c **** **********************************************************************
  44:SEGGER/Config/SEGGER_SYSVIEW_Config_FreeRTOS.c **** *                                                                    *
  45:SEGGER/Config/SEGGER_SYSVIEW_Config_FreeRTOS.c **** *       SystemView version: 3.32                                    *
  46:SEGGER/Config/SEGGER_SYSVIEW_Config_FreeRTOS.c **** *                                                                    *
  47:SEGGER/Config/SEGGER_SYSVIEW_Config_FreeRTOS.c **** **********************************************************************
  48:SEGGER/Config/SEGGER_SYSVIEW_Config_FreeRTOS.c **** -------------------------- END-OF-HEADER -----------------------------
  49:SEGGER/Config/SEGGER_SYSVIEW_Config_FreeRTOS.c **** 
  50:SEGGER/Config/SEGGER_SYSVIEW_Config_FreeRTOS.c **** File    : SEGGER_SYSVIEW_Config_FreeRTOS.c
  51:SEGGER/Config/SEGGER_SYSVIEW_Config_FreeRTOS.c **** Purpose : Sample setup configuration of SystemView with FreeRTOS.
  52:SEGGER/Config/SEGGER_SYSVIEW_Config_FreeRTOS.c **** Revision: $Rev: 7745 $
  53:SEGGER/Config/SEGGER_SYSVIEW_Config_FreeRTOS.c **** */
  54:SEGGER/Config/SEGGER_SYSVIEW_Config_FreeRTOS.c **** #include "FreeRTOS.h"
  55:SEGGER/Config/SEGGER_SYSVIEW_Config_FreeRTOS.c **** #include "SEGGER_SYSVIEW.h"
  56:SEGGER/Config/SEGGER_SYSVIEW_Config_FreeRTOS.c **** 
  57:SEGGER/Config/SEGGER_SYSVIEW_Config_FreeRTOS.c **** extern const SEGGER_SYSVIEW_OS_API SYSVIEW_X_OS_TraceAPI;
  58:SEGGER/Config/SEGGER_SYSVIEW_Config_FreeRTOS.c **** 
  59:SEGGER/Config/SEGGER_SYSVIEW_Config_FreeRTOS.c **** /*********************************************************************
  60:SEGGER/Config/SEGGER_SYSVIEW_Config_FreeRTOS.c **** *
  61:SEGGER/Config/SEGGER_SYSVIEW_Config_FreeRTOS.c **** *       Defines, configurable
  62:SEGGER/Config/SEGGER_SYSVIEW_Config_FreeRTOS.c **** *
  63:SEGGER/Config/SEGGER_SYSVIEW_Config_FreeRTOS.c **** **********************************************************************
  64:SEGGER/Config/SEGGER_SYSVIEW_Config_FreeRTOS.c **** */
  65:SEGGER/Config/SEGGER_SYSVIEW_Config_FreeRTOS.c **** // The application name to be displayed in SystemViewer
  66:SEGGER/Config/SEGGER_SYSVIEW_Config_FreeRTOS.c **** #define SYSVIEW_APP_NAME        "FreeRTOS Template"
  67:SEGGER/Config/SEGGER_SYSVIEW_Config_FreeRTOS.c **** 
  68:SEGGER/Config/SEGGER_SYSVIEW_Config_FreeRTOS.c **** // The target device name
  69:SEGGER/Config/SEGGER_SYSVIEW_Config_FreeRTOS.c **** #define SYSVIEW_DEVICE_NAME     "STM32F4 black-pill"
  70:SEGGER/Config/SEGGER_SYSVIEW_Config_FreeRTOS.c **** 
  71:SEGGER/Config/SEGGER_SYSVIEW_Config_FreeRTOS.c **** // Frequency of the timestamp. Must match SEGGER_SYSVIEW_GET_TIMESTAMP in SEGGER_SYSVIEW_Conf.h
  72:SEGGER/Config/SEGGER_SYSVIEW_Config_FreeRTOS.c **** #define SYSVIEW_TIMESTAMP_FREQ  (configCPU_CLOCK_HZ)
  73:SEGGER/Config/SEGGER_SYSVIEW_Config_FreeRTOS.c **** 
ARM GAS  C:\Users\LINZHE~1\AppData\Local\Temp\ccd8JooJ.s 			page 3


  74:SEGGER/Config/SEGGER_SYSVIEW_Config_FreeRTOS.c **** // System Frequency. SystemcoreClock is used in most CMSIS compatible projects.
  75:SEGGER/Config/SEGGER_SYSVIEW_Config_FreeRTOS.c **** #define SYSVIEW_CPU_FREQ        configCPU_CLOCK_HZ
  76:SEGGER/Config/SEGGER_SYSVIEW_Config_FreeRTOS.c **** 
  77:SEGGER/Config/SEGGER_SYSVIEW_Config_FreeRTOS.c **** // The lowest RAM address used for IDs (pointers)
  78:SEGGER/Config/SEGGER_SYSVIEW_Config_FreeRTOS.c **** #define SYSVIEW_RAM_BASE        (0x10000000)
  79:SEGGER/Config/SEGGER_SYSVIEW_Config_FreeRTOS.c **** 
  80:SEGGER/Config/SEGGER_SYSVIEW_Config_FreeRTOS.c **** /********************************************************************* 
  81:SEGGER/Config/SEGGER_SYSVIEW_Config_FreeRTOS.c **** *
  82:SEGGER/Config/SEGGER_SYSVIEW_Config_FreeRTOS.c **** *       _cbSendSystemDesc()
  83:SEGGER/Config/SEGGER_SYSVIEW_Config_FreeRTOS.c **** *
  84:SEGGER/Config/SEGGER_SYSVIEW_Config_FreeRTOS.c **** *  Function description
  85:SEGGER/Config/SEGGER_SYSVIEW_Config_FreeRTOS.c **** *    Sends SystemView description strings.
  86:SEGGER/Config/SEGGER_SYSVIEW_Config_FreeRTOS.c **** */
  87:SEGGER/Config/SEGGER_SYSVIEW_Config_FreeRTOS.c **** static void _cbSendSystemDesc(void) {
  36              		.loc 1 87 37 view -0
  37              		.cfi_startproc
  38              		@ args = 0, pretend = 0, frame = 0
  39              		@ frame_needed = 0, uses_anonymous_args = 0
  40 0000 08B5     		push	{r3, lr}
  41              	.LCFI0:
  42              		.cfi_def_cfa_offset 8
  43              		.cfi_offset 3, -8
  44              		.cfi_offset 14, -4
  88:SEGGER/Config/SEGGER_SYSVIEW_Config_FreeRTOS.c ****   SEGGER_SYSVIEW_SendSysDesc("N="SYSVIEW_APP_NAME",D="SYSVIEW_DEVICE_NAME",O=FreeRTOS");
  45              		.loc 1 88 3 view .LVU1
  46 0002 0348     		ldr	r0, .L3
  47 0004 FFF7FEFF 		bl	SEGGER_SYSVIEW_SendSysDesc
  48              	.LVL0:
  89:SEGGER/Config/SEGGER_SYSVIEW_Config_FreeRTOS.c ****   SEGGER_SYSVIEW_SendSysDesc("I#15=SysTick");
  49              		.loc 1 89 3 view .LVU2
  50 0008 0248     		ldr	r0, .L3+4
  51 000a FFF7FEFF 		bl	SEGGER_SYSVIEW_SendSysDesc
  52              	.LVL1:
  90:SEGGER/Config/SEGGER_SYSVIEW_Config_FreeRTOS.c **** }
  53              		.loc 1 90 1 is_stmt 0 view .LVU3
  54 000e 08BD     		pop	{r3, pc}
  55              	.L4:
  56              		.align	2
  57              	.L3:
  58 0010 00000000 		.word	.LC0
  59 0014 34000000 		.word	.LC1
  60              		.cfi_endproc
  61              	.LFE5:
  63              		.section	.text.SEGGER_SYSVIEW_Conf,"ax",%progbits
  64              		.align	1
  65              		.global	SEGGER_SYSVIEW_Conf
  66              		.syntax unified
  67              		.thumb
  68              		.thumb_func
  70              	SEGGER_SYSVIEW_Conf:
  71              	.LFB6:
  91:SEGGER/Config/SEGGER_SYSVIEW_Config_FreeRTOS.c **** 
  92:SEGGER/Config/SEGGER_SYSVIEW_Config_FreeRTOS.c **** /*********************************************************************
  93:SEGGER/Config/SEGGER_SYSVIEW_Config_FreeRTOS.c **** *
  94:SEGGER/Config/SEGGER_SYSVIEW_Config_FreeRTOS.c **** *       Global functions
  95:SEGGER/Config/SEGGER_SYSVIEW_Config_FreeRTOS.c **** *
  96:SEGGER/Config/SEGGER_SYSVIEW_Config_FreeRTOS.c **** **********************************************************************
ARM GAS  C:\Users\LINZHE~1\AppData\Local\Temp\ccd8JooJ.s 			page 4


  97:SEGGER/Config/SEGGER_SYSVIEW_Config_FreeRTOS.c **** */
  98:SEGGER/Config/SEGGER_SYSVIEW_Config_FreeRTOS.c **** void SEGGER_SYSVIEW_Conf(void) {
  72              		.loc 1 98 32 is_stmt 1 view -0
  73              		.cfi_startproc
  74              		@ args = 0, pretend = 0, frame = 0
  75              		@ frame_needed = 0, uses_anonymous_args = 0
  76 0000 08B5     		push	{r3, lr}
  77              	.LCFI1:
  78              		.cfi_def_cfa_offset 8
  79              		.cfi_offset 3, -8
  80              		.cfi_offset 14, -4
  99:SEGGER/Config/SEGGER_SYSVIEW_Config_FreeRTOS.c ****   SEGGER_SYSVIEW_Init(SYSVIEW_TIMESTAMP_FREQ, SYSVIEW_CPU_FREQ, 
  81              		.loc 1 99 3 view .LVU5
  82 0002 064B     		ldr	r3, .L7
  83 0004 1868     		ldr	r0, [r3]
  84 0006 064B     		ldr	r3, .L7+4
  85 0008 064A     		ldr	r2, .L7+8
  86 000a 0146     		mov	r1, r0
  87 000c FFF7FEFF 		bl	SEGGER_SYSVIEW_Init
  88              	.LVL2:
 100:SEGGER/Config/SEGGER_SYSVIEW_Config_FreeRTOS.c ****                       &SYSVIEW_X_OS_TraceAPI, _cbSendSystemDesc);
 101:SEGGER/Config/SEGGER_SYSVIEW_Config_FreeRTOS.c ****   SEGGER_SYSVIEW_SetRAMBase(SYSVIEW_RAM_BASE);
  89              		.loc 1 101 3 view .LVU6
  90 0010 4FF08050 		mov	r0, #268435456
  91 0014 FFF7FEFF 		bl	SEGGER_SYSVIEW_SetRAMBase
  92              	.LVL3:
 102:SEGGER/Config/SEGGER_SYSVIEW_Config_FreeRTOS.c **** }
  93              		.loc 1 102 1 is_stmt 0 view .LVU7
  94 0018 08BD     		pop	{r3, pc}
  95              	.L8:
  96 001a 00BF     		.align	2
  97              	.L7:
  98 001c 00000000 		.word	SystemCoreClock
  99 0020 00000000 		.word	_cbSendSystemDesc
 100 0024 00000000 		.word	SYSVIEW_X_OS_TraceAPI
 101              		.cfi_endproc
 102              	.LFE6:
 104              		.text
 105              	.Letext0:
 106              		.file 2 "d:\\gcc-arm-none-eabi-10.3-2021.10\\arm-none-eabi\\include\\machine\\_default_types.h"
 107              		.file 3 "d:\\gcc-arm-none-eabi-10.3-2021.10\\arm-none-eabi\\include\\sys\\_stdint.h"
 108              		.file 4 "SEGGER/SEGGER/SEGGER_SYSVIEW.h"
 109              		.file 5 "Core/Inc/FreeRTOSConfig.h"
ARM GAS  C:\Users\LINZHE~1\AppData\Local\Temp\ccd8JooJ.s 			page 5

